target datalayout = "e-m:e-p270:32:32-p271:32:32-p272:64:64-i64:64-i128:128-f80:128-n8:16:32:64-S128"
target triple = "x86_64-pc-linux-gnu"

%"class.sls::bvect" = type <{ %class.svector, i32, i32, i32, [4 x i8] }>
%class.svector = type { %class.vector }
%class.vector = type { ptr }
%class.mpn_manager = type { i8 }
%"class.sls::bv_valuation" = type { %"class.sls::bvect", %"class.sls::bvect", %"class.sls::bvect", %"class.sls::bvect", %"class.sls::bvect", %"class.sls::bvect", i32, i32, i32, i32, %"class.sls::bvect" }

; Function Attrs: mustprogress nounwind uwtable
define linkonce_odr hidden noundef i32 @_ZNK6vectorIjLb0EjE8capacityEv(ptr noundef nonnull align 8 dereferenceable(8) %0) #5 comdat align 2 {
  %2 = alloca i32, align 4
  %3 = alloca ptr, align 8
  store ptr %0, ptr %3, align 8, !tbaa !17
  %4 = load ptr, ptr %3, align 8
  %5 = getelementptr inbounds nuw %class.vector, ptr %4, i32 0, i32 0
  %6 = load ptr, ptr %5, align 8, !tbaa !19
  %7 = icmp eq ptr %6, null
  br i1 %7, label %8, label %9

8:                                                ; preds = %1
  store i32 0, ptr %2, align 4
  br label %14

9:                                                ; preds = %1
  %10 = getelementptr inbounds nuw %class.vector, ptr %4, i32 0, i32 0
  %11 = load ptr, ptr %10, align 8, !tbaa !19
  %12 = getelementptr inbounds i32, ptr %11, i64 -2
  %13 = load i32, ptr %12, align 4, !tbaa !8
  store i32 %13, ptr %2, align 4
  br label %14

14:                                               ; preds = %9, %8
  %15 = load i32, ptr %2, align 4
  ret i32 %15
}

; Function Attrs: mustprogress nounwind uwtable
define linkonce_odr hidden void @_ZN6vectorIjLb0EjE6shrinkEj(ptr noundef nonnull align 8 dereferenceable(8) %0, i32 noundef %1) #5 comdat align 2 {
  %3 = alloca ptr, align 8
  %4 = alloca i32, align 4
  store ptr %0, ptr %3, align 8, !tbaa !17
  store i32 %1, ptr %4, align 4, !tbaa !8
  %5 = load ptr, ptr %3, align 8
  %6 = getelementptr inbounds nuw %class.vector, ptr %5, i32 0, i32 0
  %7 = load ptr, ptr %6, align 8, !tbaa !19
  %8 = icmp ne ptr %7, null
  br i1 %8, label %9, label %14

9:                                                ; preds = %2
  %10 = load i32, ptr %4, align 4, !tbaa !8
  %11 = getelementptr inbounds nuw %class.vector, ptr %5, i32 0, i32 0
  %12 = load ptr, ptr %11, align 8, !tbaa !19
  %13 = getelementptr inbounds i32, ptr %12, i64 -1
  store i32 %10, ptr %13, align 4, !tbaa !8
  br label %15

14:                                               ; preds = %2
  br label %15

15:                                               ; preds = %14, %9
  ret void
}

; Function Attrs: mustprogress nounwind uwtable
define linkonce_odr hidden noundef nonnull align 4 dereferenceable(4) ptr @_ZNK6vectorIjLb0EjEixEj(ptr noundef nonnull align 8 dereferenceable(8) %0, i32 noundef %1) #5 comdat align 2 {
  %3 = alloca ptr, align 8
  %4 = alloca i32, align 4
  store ptr %0, ptr %3, align 8, !tbaa !17
  store i32 %1, ptr %4, align 4, !tbaa !8
  %5 = load ptr, ptr %3, align 8
  %6 = getelementptr inbounds nuw %class.vector, ptr %5, i32 0, i32 0
  %7 = load ptr, ptr %6, align 8, !tbaa !19
  %8 = load i32, ptr %4, align 4, !tbaa !8
  %9 = zext i32 %8 to i64
  %10 = getelementptr inbounds nuw i32, ptr %7, i64 %9
  ret ptr %10
}

; Function Attrs: mustprogress uwtable
define linkonce_odr hidden void @_ZN6vectorIjLb0EjE6resizeEj(ptr noundef nonnull align 8 dereferenceable(8) %0, i32 noundef %1) #4 comdat align 2 {
  %3 = alloca ptr, align 8
  %4 = alloca i32, align 4
  %5 = alloca i32, align 4
  %6 = alloca i32, align 4
  %7 = alloca ptr, align 8
  %8 = alloca ptr, align 8
  store ptr %0, ptr %3, align 8, !tbaa !17
  store i32 %1, ptr %4, align 4, !tbaa !8
  %9 = load ptr, ptr %3, align 8
  call void @llvm.lifetime.start.p0(i64 4, ptr %5) #3
  %10 = call noundef i32 @_ZNK6vectorIjLb0EjE4sizeEv(ptr noundef nonnull align 8 dereferenceable(8) %9)
  store i32 %10, ptr %5, align 4, !tbaa !8
  %11 = load i32, ptr %4, align 4, !tbaa !8
  %12 = load i32, ptr %5, align 4, !tbaa !8
  %13 = icmp ule i32 %11, %12
  br i1 %13, label %14, label %16

14:                                               ; preds = %2
  %15 = load i32, ptr %4, align 4, !tbaa !8
  call void @_ZN6vectorIjLb0EjE6shrinkEj(ptr noundef nonnull align 8 dereferenceable(8) %9, i32 noundef %15)
  store i32 1, ptr %6, align 4
  br label %47

16:                                               ; preds = %2
  br label %17

17:                                               ; preds = %21, %16
  %18 = load i32, ptr %4, align 4, !tbaa !8
  %19 = call noundef i32 @_ZNK6vectorIjLb0EjE8capacityEv(ptr noundef nonnull align 8 dereferenceable(8) %9)
  %20 = icmp ugt i32 %18, %19
  br i1 %20, label %21, label %22

21:                                               ; preds = %17
  call void @_ZN6vectorIjLb0EjE13expand_vectorEv(ptr noundef nonnull align 8 dereferenceable(8) %9)
  br label %17, !llvm.loop !154

22:                                               ; preds = %17
  %23 = load i32, ptr %4, align 4, !tbaa !8
  %24 = getelementptr inbounds nuw %class.vector, ptr %9, i32 0, i32 0
  %25 = load ptr, ptr %24, align 8, !tbaa !19
  %26 = getelementptr inbounds i32, ptr %25, i64 -1
  store i32 %23, ptr %26, align 4, !tbaa !8
  call void @llvm.lifetime.start.p0(i64 8, ptr %7) #3
  %27 = getelementptr inbounds nuw %class.vector, ptr %9, i32 0, i32 0
  %28 = load ptr, ptr %27, align 8, !tbaa !19
  %29 = load i32, ptr %5, align 4, !tbaa !8
  %30 = zext i32 %29 to i64
  %31 = getelementptr inbounds nuw i32, ptr %28, i64 %30
  store ptr %31, ptr %7, align 8, !tbaa !145
  call void @llvm.lifetime.start.p0(i64 8, ptr %8) #3
  %32 = getelementptr inbounds nuw %class.vector, ptr %9, i32 0, i32 0
  %33 = load ptr, ptr %32, align 8, !tbaa !19
  %34 = load i32, ptr %4, align 4, !tbaa !8
  %35 = zext i32 %34 to i64
  %36 = getelementptr inbounds nuw i32, ptr %33, i64 %35
  store ptr %36, ptr %8, align 8, !tbaa !145
  br label %37

37:                                               ; preds = %43, %22
  %38 = load ptr, ptr %7, align 8, !tbaa !145
  %39 = load ptr, ptr %8, align 8, !tbaa !145
  %40 = icmp ne ptr %38, %39
  br i1 %40, label %41, label %46

41:                                               ; preds = %37
  %42 = load ptr, ptr %7, align 8, !tbaa !145
  store i32 0, ptr %42, align 4, !tbaa !8
  br label %43

43:                                               ; preds = %41
  %44 = load ptr, ptr %7, align 8, !tbaa !145
  %45 = getelementptr inbounds nuw i32, ptr %44, i32 1
  store ptr %45, ptr %7, align 8, !tbaa !145
  br label %37, !llvm.loop !155

46:                                               ; preds = %37
  call void @llvm.lifetime.end.p0(i64 8, ptr %8) #3
  call void @llvm.lifetime.end.p0(i64 8, ptr %7) #3
  store i32 0, ptr %6, align 4
  br label %47

47:                                               ; preds = %46, %14
  call void @llvm.lifetime.end.p0(i64 4, ptr %5) #3
  %48 = load i32, ptr %6, align 4
  switch i32 %48, label %50 [
    i32 0, label %49
    i32 1, label %49
  ]

49:                                               ; preds = %47, %47
  ret void

50:                                               ; preds = %47
  unreachable
}

; Function Attrs: mustprogress nounwind uwtable
define linkonce_odr hidden noundef i32 @_ZNK6vectorIjLb0EjE4sizeEv(ptr noundef nonnull align 8 dereferenceable(8) %0) #5 comdat align 2 {
  %2 = alloca i32, align 4
  %3 = alloca ptr, align 8
  store ptr %0, ptr %3, align 8, !tbaa !17
  %4 = load ptr, ptr %3, align 8
  %5 = getelementptr inbounds nuw %class.vector, ptr %4, i32 0, i32 0
  %6 = load ptr, ptr %5, align 8, !tbaa !19
  %7 = icmp eq ptr %6, null
  br i1 %7, label %8, label %9

8:                                                ; preds = %1
  store i32 0, ptr %2, align 4
  br label %14

9:                                                ; preds = %1
  %10 = getelementptr inbounds nuw %class.vector, ptr %4, i32 0, i32 0
  %11 = load ptr, ptr %10, align 8, !tbaa !19
  %12 = getelementptr inbounds i32, ptr %11, i64 -1
  %13 = load i32, ptr %12, align 4, !tbaa !8
  store i32 %13, ptr %2, align 4
  br label %14

14:                                               ; preds = %9, %8
  %15 = load i32, ptr %2, align 4
  ret i32 %15
}

; Function Attrs: mustprogress uwtable
define linkonce_odr hidden void @_ZNK3sls12bv_valuation19clear_overflow_bitsERNS_5bvectE(ptr noundef nonnull align 8 dereferenceable(184) %0, ptr noundef nonnull align 8 dereferenceable(20) %1) #4 comdat align 2 {
  %3 = alloca ptr, align 8
  %4 = alloca ptr, align 8
  store ptr %0, ptr %3, align 8, !tbaa !53
  store ptr %1, ptr %4, align 8, !tbaa !3
  %5 = load ptr, ptr %3, align 8
  %6 = getelementptr inbounds nuw %"class.sls::bv_valuation", ptr %5, i32 0, i32 7
  %7 = load i32, ptr %6, align 4, !tbaa !59
  %8 = load ptr, ptr %4, align 8, !tbaa !3
  %9 = getelementptr inbounds nuw %"class.sls::bv_valuation", ptr %5, i32 0, i32 9
  %10 = load i32, ptr %9, align 4, !tbaa !57
  %11 = sub i32 %10, 1
  %12 = call noundef nonnull align 4 dereferenceable(4) ptr @_ZN6vectorIjLb0EjEixEj(ptr noundef nonnull align 8 dereferenceable(8) %8, i32 noundef %11)
  %13 = load i32, ptr %12, align 4, !tbaa !8
  %14 = and i32 %13, %7
  store i32 %14, ptr %12, align 4, !tbaa !8
  ret void
}

; Function Attrs: mustprogress nounwind uwtable
define linkonce_odr hidden noundef nonnull align 4 dereferenceable(4) ptr @_ZN6vectorIjLb0EjEixEj(ptr noundef nonnull align 8 dereferenceable(8) %0, i32 noundef %1) #5 comdat align 2 {
  %3 = alloca ptr, align 8
  %4 = alloca i32, align 4
  store ptr %0, ptr %3, align 8, !tbaa !17
  store i32 %1, ptr %4, align 4, !tbaa !8
  %5 = load ptr, ptr %3, align 8
  %6 = getelementptr inbounds nuw %class.vector, ptr %5, i32 0, i32 0
  %7 = load ptr, ptr %6, align 8, !tbaa !19
  %8 = load i32, ptr %4, align 4, !tbaa !8
  %9 = zext i32 %8 to i64
  %10 = getelementptr inbounds nuw i32, ptr %7, i64 %9
  ret ptr %10
}

; Function Attrs: mustprogress uwtable
define linkonce_odr hidden noundef zeroext i1 @_ZNK3sls12bv_valuation12has_overflowERKNS_5bvectE(ptr noundef nonnull align 8 dereferenceable(184) %0, ptr noundef nonnull align 8 dereferenceable(20) %1) #4 comdat align 2 {
  %3 = alloca ptr, align 8
  %4 = alloca ptr, align 8
  store ptr %0, ptr %3, align 8, !tbaa !53
  store ptr %1, ptr %4, align 8, !tbaa !3
  %5 = load ptr, ptr %3, align 8
  %6 = load ptr, ptr %4, align 8, !tbaa !3
  %7 = getelementptr inbounds nuw %"class.sls::bv_valuation", ptr %5, i32 0, i32 9
  %8 = load i32, ptr %7, align 4, !tbaa !57
  %9 = sub i32 %8, 1
  %10 = call noundef nonnull align 4 dereferenceable(4) ptr @_ZNK6vectorIjLb0EjEixEj(ptr noundef nonnull align 8 dereferenceable(8) %6, i32 noundef %9)
  %11 = load i32, ptr %10, align 4, !tbaa !8
  %12 = getelementptr inbounds nuw %"class.sls::bv_valuation", ptr %5, i32 0, i32 7
  %13 = load i32, ptr %12, align 4, !tbaa !59
  %14 = xor i32 %13, -1
  %15 = and i32 %11, %14
  %16 = icmp ne i32 0, %15
  ret i1 %16
}

; Function Attrs: mustprogress nounwind uwtable
define linkonce_odr hidden noundef ptr @_ZNK6vectorIjLb0EjE4dataEv(ptr noundef nonnull align 8 dereferenceable(8) %0) #5 comdat align 2 {
  %2 = alloca ptr, align 8
  store ptr %0, ptr %2, align 8, !tbaa !17
  %3 = load ptr, ptr %2, align 8
  %4 = getelementptr inbounds nuw %class.vector, ptr %3, i32 0, i32 0
  %5 = load ptr, ptr %4, align 8, !tbaa !19
  ret ptr %5
}

; Function Attrs: mustprogress uwtable
define linkonce_odr hidden void @_ZN6vectorIjLb0EjE7reserveEj(ptr noundef nonnull align 8 dereferenceable(8) %0, i32 noundef %1) #4 comdat align 2 {
  %3 = alloca ptr, align 8
  %4 = alloca i32, align 4
  store ptr %0, ptr %3, align 8, !tbaa !17
  store i32 %1, ptr %4, align 4, !tbaa !8
  %5 = load ptr, ptr %3, align 8
  %6 = load i32, ptr %4, align 4, !tbaa !8
  %7 = call noundef i32 @_ZNK6vectorIjLb0EjE4sizeEv(ptr noundef nonnull align 8 dereferenceable(8) %5)
  %8 = icmp ugt i32 %6, %7
  br i1 %8, label %9, label %11

9:                                                ; preds = %2
  %10 = load i32, ptr %4, align 4, !tbaa !8
  call void @_ZN6vectorIjLb0EjE6resizeEj(ptr noundef nonnull align 8 dereferenceable(8) %5, i32 noundef %10)
  br label %11

11:                                               ; preds = %9, %2
  ret void
}

; Function Attrs: mustprogress uwtable
define hidden noundef zeroext i1 @_ZNK3sls12bv_valuation7set_mulERNS_5bvectERKS1_S4_b(ptr noundef nonnull align 8 dereferenceable(184) %0, ptr noundef nonnull align 8 dereferenceable(20) %1, ptr noundef nonnull align 8 dereferenceable(20) %2, ptr noundef nonnull align 8 dereferenceable(20) %3, i1 noundef zeroext %4) #4 align 2 {
  %6 = alloca ptr, align 8
  %7 = alloca ptr, align 8
  %8 = alloca ptr, align 8
  %9 = alloca ptr, align 8
  %10 = alloca i8, align 1
  %11 = alloca %class.mpn_manager, align 1
  %12 = alloca i8, align 1
  %13 = alloca i32, align 4
  store ptr %0, ptr %6, align 8, !tbaa !53
  store ptr %1, ptr %7, align 8, !tbaa !3
  store ptr %2, ptr %8, align 8, !tbaa !3
  store ptr %3, ptr %9, align 8, !tbaa !3
  %14 = zext i1 %4 to i8
  store i8 %14, ptr %10, align 1, !tbaa !25
  %15 = load ptr, ptr %6, align 8
  %16 = load ptr, ptr %7, align 8, !tbaa !3
  %17 = getelementptr inbounds nuw %"class.sls::bv_valuation", ptr %15, i32 0, i32 9
  %18 = load i32, ptr %17, align 4, !tbaa !57
  %19 = mul i32 2, %18
  call void @_ZN6vectorIjLb0EjE7reserveEj(ptr noundef nonnull align 8 dereferenceable(8) %16, i32 noundef %19)
  call void @llvm.lifetime.start.p0(i64 1, ptr %11) #3
  %20 = load ptr, ptr %8, align 8, !tbaa !3
  %21 = call noundef ptr @_ZNK6vectorIjLb0EjE4dataEv(ptr noundef nonnull align 8 dereferenceable(8) %20)
  %22 = getelementptr inbounds nuw %"class.sls::bv_valuation", ptr %15, i32 0, i32 9
  %23 = load i32, ptr %22, align 4, !tbaa !57
  %24 = load ptr, ptr %9, align 8, !tbaa !3
  %25 = call noundef ptr @_ZNK6vectorIjLb0EjE4dataEv(ptr noundef nonnull align 8 dereferenceable(8) %24)
  %26 = getelementptr inbounds nuw %"class.sls::bv_valuation", ptr %15, i32 0, i32 9
  %27 = load i32, ptr %26, align 4, !tbaa !57
  %28 = load ptr, ptr %7, align 8, !tbaa !3
  %29 = call noundef ptr @_ZNK6vectorIjLb0EjE4dataEv(ptr noundef nonnull align 8 dereferenceable(8) %28)
  %30 = call noundef zeroext i1 @_ZNK11mpn_manager3mulEPKjjS1_jPj(ptr noundef nonnull align 1 dereferenceable(1) %11, ptr noundef %21, i32 noundef %23, ptr noundef %25, i32 noundef %27, ptr noundef %29)
  call void @llvm.lifetime.end.p0(i64 1, ptr %11) #3
  call void @llvm.lifetime.start.p0(i64 1, ptr %12) #3
  store i8 0, ptr %12, align 1, !tbaa !25
  %31 = load i8, ptr %10, align 1, !tbaa !25, !range !27, !noundef !28
  %32 = trunc i8 %31 to i1
  br i1 %32, label %33, label %63

33:                                               ; preds = %5
  %34 = load ptr, ptr %7, align 8, !tbaa !3
  %35 = call noundef zeroext i1 @_ZNK3sls12bv_valuation12has_overflowERKNS_5bvectE(ptr noundef nonnull align 8 dereferenceable(184) %15, ptr noundef nonnull align 8 dereferenceable(20) %34)
  %36 = zext i1 %35 to i8
  store i8 %36, ptr %12, align 1, !tbaa !25
  call void @llvm.lifetime.start.p0(i64 4, ptr %13) #3
  %37 = getelementptr inbounds nuw %"class.sls::bv_valuation", ptr %15, i32 0, i32 9
  %38 = load i32, ptr %37, align 4, !tbaa !57
  store i32 %38, ptr %13, align 4, !tbaa !8
  br label %39

39:                                               ; preds = %59, %33
  %40 = load i32, ptr %13, align 4, !tbaa !8
  %41 = getelementptr inbounds nuw %"class.sls::bv_valuation", ptr %15, i32 0, i32 9
  %42 = load i32, ptr %41, align 4, !tbaa !57
  %43 = mul i32 2, %42
  %44 = icmp ult i32 %40, %43
  br i1 %44, label %46, label %45

45:                                               ; preds = %39
  call void @llvm.lifetime.end.p0(i64 4, ptr %13) #3
  br label %62

46:                                               ; preds = %39
  %47 = load ptr, ptr %7, align 8, !tbaa !3
  %48 = load i32, ptr %13, align 4, !tbaa !8
  %49 = call noundef nonnull align 4 dereferenceable(4) ptr @_ZN6vectorIjLb0EjEixEj(ptr noundef nonnull align 8 dereferenceable(8) %47, i32 noundef %48)
  %50 = load i32, ptr %49, align 4, !tbaa !8
  %51 = icmp ne i32 %50, 0
  %52 = zext i1 %51 to i32
  %53 = load i8, ptr %12, align 1, !tbaa !25, !range !27, !noundef !28
  %54 = trunc i8 %53 to i1
  %55 = zext i1 %54 to i32
  %56 = or i32 %55, %52
  %57 = icmp ne i32 %56, 0
  %58 = zext i1 %57 to i8
  store i8 %58, ptr %12, align 1, !tbaa !25
  br label %59

59:                                               ; preds = %46
  %60 = load i32, ptr %13, align 4, !tbaa !8
  %61 = add i32 %60, 1
  store i32 %61, ptr %13, align 4, !tbaa !8
  br label %39, !llvm.loop !118

62:                                               ; preds = %45
  br label %63

63:                                               ; preds = %62, %5
  %64 = load ptr, ptr %7, align 8, !tbaa !3
  call void @_ZNK3sls12bv_valuation19clear_overflow_bitsERNS_5bvectE(ptr noundef nonnull align 8 dereferenceable(184) %15, ptr noundef nonnull align 8 dereferenceable(20) %64)
  %65 = load i8, ptr %12, align 1, !tbaa !25, !range !27, !noundef !28
  %66 = trunc i8 %65 to i1
  call void @llvm.lifetime.end.p0(i64 1, ptr %12) #3
  ret i1 %66
}