; Function Attrs: mustprogress uwtable
define hidden noundef zeroext i1 @_ZNK3sls12bv_valuation7set_mulERNS_5bvectERKS1_S4_b(ptr noundef nonnull readonly align 8 captures(none) dereferenceable(184) %0, ptr noundef nonnull align 8 dereferenceable(20) %1, ptr noundef nonnull readonly align 8 captures(none) dereferenceable(20) %2, ptr noundef nonnull readonly align 8 captures(none) dereferenceable(20) %3, i1 noundef zeroext %4) local_unnamed_addr #3 align 2 {
  %6 = alloca %class.mpn_manager, align 1
  %7 = getelementptr inbounds nuw i8, ptr %0, i64 156
  %8 = load i32, ptr %7, align 4, !tbaa !68
  %9 = shl i32 %8, 1
  %10 = load ptr, ptr %1, align 8, !tbaa !14
  %11 = icmp eq ptr %10, null
  br i1 %11, label %_ZNK6vectorIjLb0EjE4sizeEv.exit.i, label %_ZNK6vectorIjLb0EjE4sizeEv.exit.thread.i

_ZNK6vectorIjLb0EjE4sizeEv.exit.i:                ; preds = %5
  %.not.i = icmp eq i32 %9, 0
  br i1 %.not.i, label %_ZN6vectorIjLb0EjE7reserveEj.exit, label %_ZNK6vectorIjLb0EjE4sizeEv.exit.i.i.preheader

_ZNK6vectorIjLb0EjE4sizeEv.exit.thread.i:         ; preds = %5
  %12 = getelementptr inbounds i8, ptr %10, i64 -4
  %13 = load i32, ptr %12, align 4, !tbaa !15
  %14 = icmp ugt i32 %9, %13
  br i1 %14, label %_ZNK6vectorIjLb0EjE4sizeEv.exit.i.i.preheader, label %_ZN6vectorIjLb0EjE7reserveEj.exit

_ZNK6vectorIjLb0EjE4sizeEv.exit.i.i.preheader:    ; preds = %_ZNK6vectorIjLb0EjE4sizeEv.exit.i, %_ZNK6vectorIjLb0EjE4sizeEv.exit.thread.i
  %.ph = phi ptr [ %10, %_ZNK6vectorIjLb0EjE4sizeEv.exit.thread.i ], [ null, %_ZNK6vectorIjLb0EjE4sizeEv.exit.i ]
  %.0.i16.i.i.ph = phi i32 [ %13, %_ZNK6vectorIjLb0EjE4sizeEv.exit.thread.i ], [ 0, %_ZNK6vectorIjLb0EjE4sizeEv.exit.i ]
  br label %_ZNK6vectorIjLb0EjE4sizeEv.exit.i.i

_ZNK6vectorIjLb0EjE4sizeEv.exit.i.i:              ; preds = %_ZNK6vectorIjLb0EjE4sizeEv.exit.i.i.preheader, %_ZNK6vectorIjLb0EjE8capacityEv.exit.thread.i.i
  %15 = phi ptr [ %.pr.pre.i.i, %_ZNK6vectorIjLb0EjE8capacityEv.exit.thread.i.i ], [ %.ph, %_ZNK6vectorIjLb0EjE4sizeEv.exit.i.i.preheader ]
  %16 = icmp eq ptr %15, null
  br i1 %16, label %_ZNK6vectorIjLb0EjE8capacityEv.exit.thread.i.i, label %_ZNK6vectorIjLb0EjE8capacityEv.exit.i.i

_ZNK6vectorIjLb0EjE8capacityEv.exit.i.i:          ; preds = %_ZNK6vectorIjLb0EjE4sizeEv.exit.i.i
  %17 = getelementptr inbounds i8, ptr %15, i64 -8
  %18 = load i32, ptr %17, align 4, !tbaa !15
  %19 = icmp ugt i32 %9, %18
  br i1 %19, label %_ZNK6vectorIjLb0EjE8capacityEv.exit.thread.i.i, label %20

_ZNK6vectorIjLb0EjE8capacityEv.exit.thread.i.i:   ; preds = %_ZNK6vectorIjLb0EjE8capacityEv.exit.i.i, %_ZNK6vectorIjLb0EjE4sizeEv.exit.i.i
  tail call void @_ZN6vectorIjLb0EjE13expand_vectorEv(ptr noundef nonnull align 8 dereferenceable(8) %1)
  %.pr.pre.i.i = load ptr, ptr %1, align 8, !tbaa !14
  br label %_ZNK6vectorIjLb0EjE4sizeEv.exit.i.i, !llvm.loop !16

20:                                               ; preds = %_ZNK6vectorIjLb0EjE8capacityEv.exit.i.i
  %21 = getelementptr inbounds i8, ptr %15, i64 -4
  store i32 %9, ptr %21, align 4, !tbaa !15
  %.not1218.i.i = icmp eq i32 %.0.i16.i.i.ph, %9
  br i1 %.not1218.i.i, label %_ZN6vectorIjLb0EjE7reserveEj.exit, label %.lr.ph.preheader.i.i

.lr.ph.preheader.i.i:                             ; preds = %20
  %22 = zext i32 %9 to i64
  %23 = zext i32 %.0.i16.i.i.ph to i64
  %24 = getelementptr i32, ptr %15, i64 %23
  %25 = sub nsw i64 %22, %23
  %26 = shl nsw i64 %25, 2
  tail call void @llvm.memset.p0.i64(ptr align 4 %24, i8 0, i64 %26, i1 false), !tbaa !15
  br label %_ZN6vectorIjLb0EjE7reserveEj.exit

_ZN6vectorIjLb0EjE7reserveEj.exit:                ; preds = %_ZNK6vectorIjLb0EjE4sizeEv.exit.i, %_ZNK6vectorIjLb0EjE4sizeEv.exit.thread.i, %20, %.lr.ph.preheader.i.i
  %27 = phi ptr [ null, %_ZNK6vectorIjLb0EjE4sizeEv.exit.i ], [ %10, %_ZNK6vectorIjLb0EjE4sizeEv.exit.thread.i ], [ %15, %20 ], [ %15, %.lr.ph.preheader.i.i ]
  call void @llvm.lifetime.start.p0(i64 1, ptr nonnull %6) #29
  %28 = load ptr, ptr %2, align 8, !tbaa !14
  %29 = load i32, ptr %7, align 4, !tbaa !68
  %30 = load ptr, ptr %3, align 8, !tbaa !14
  %31 = call noundef zeroext i1 @_ZNK11mpn_manager3mulEPKjjS1_jPj(ptr noundef nonnull align 1 dereferenceable(1) %6, ptr noundef %28, i32 noundef %29, ptr noundef %30, i32 noundef %29, ptr noundef %27)
  call void @llvm.lifetime.end.p0(i64 1, ptr nonnull %6) #29
  br i1 %4, label %32, label %_ZN6vectorIjLb0EjE7reserveEj.exit..loopexit_crit_edge

_ZN6vectorIjLb0EjE7reserveEj.exit..loopexit_crit_edge: ; preds = %_ZN6vectorIjLb0EjE7reserveEj.exit
  %.phi.trans.insert = getelementptr inbounds nuw i8, ptr %0, i64 148
  %.pre = load i32, ptr %.phi.trans.insert, align 4, !tbaa !69
  %.pre16 = load i32, ptr %7, align 4, !tbaa !68
  %.pre17 = load ptr, ptr %1, align 8, !tbaa !14
  %.pre18 = add i32 %.pre16, -1
  %.pre19 = zext i32 %.pre18 to i64
  br label %.loopexit

32:                                               ; preds = %_ZN6vectorIjLb0EjE7reserveEj.exit
  %33 = load i32, ptr %7, align 4, !tbaa !68
  %34 = add i32 %33, -1
  %35 = load ptr, ptr %1, align 8, !tbaa !14
  %36 = zext i32 %34 to i64
  %37 = getelementptr inbounds nuw i32, ptr %35, i64 %36
  %38 = load i32, ptr %37, align 4, !tbaa !15
  %39 = getelementptr inbounds nuw i8, ptr %0, i64 148
  %40 = load i32, ptr %39, align 4, !tbaa !69
  %41 = xor i32 %40, -1
  %42 = and i32 %38, %41
  %43 = icmp ne i32 %42, 0
  %44 = icmp sgt i32 %33, 0
  br i1 %44, label %.lr.ph.preheader, label %.loopexit

.lr.ph.preheader:                                 ; preds = %32
  %45 = shl nuw i32 %33, 1
  %46 = zext nneg i32 %33 to i64
  %47 = zext i32 %45 to i64
  br label %.lr.ph

.lr.ph:                                           ; preds = %.lr.ph.preheader, %.lr.ph
  %indvars.iv = phi i64 [ %46, %.lr.ph.preheader ], [ %indvars.iv.next, %.lr.ph ]
  %.1.in14 = phi i1 [ %43, %.lr.ph.preheader ], [ %51, %.lr.ph ]
  %48 = getelementptr inbounds nuw i32, ptr %35, i64 %indvars.iv
  %49 = load i32, ptr %48, align 4, !tbaa !15
  %50 = icmp ne i32 %49, 0
  %51 = or i1 %.1.in14, %50
  %indvars.iv.next = add nuw nsw i64 %indvars.iv, 1
  %52 = icmp samesign ult i64 %indvars.iv.next, %47
  br i1 %52, label %.lr.ph, label %.loopexit, !llvm.loop !163

.loopexit:                                        ; preds = %.lr.ph, %_ZN6vectorIjLb0EjE7reserveEj.exit..loopexit_crit_edge, %32
  %.pre-phi20 = phi i64 [ %.pre19, %_ZN6vectorIjLb0EjE7reserveEj.exit..loopexit_crit_edge ], [ %36, %32 ], [ %36, %.lr.ph ]
  %53 = phi ptr [ %.pre17, %_ZN6vectorIjLb0EjE7reserveEj.exit..loopexit_crit_edge ], [ %35, %32 ], [ %35, %.lr.ph ]
  %54 = phi i32 [ %.pre, %_ZN6vectorIjLb0EjE7reserveEj.exit..loopexit_crit_edge ], [ %40, %32 ], [ %40, %.lr.ph ]
  %.013 = phi i1 [ false, %_ZN6vectorIjLb0EjE7reserveEj.exit..loopexit_crit_edge ], [ %43, %32 ], [ %51, %.lr.ph ]
  %55 = getelementptr inbounds nuw i32, ptr %53, i64 %.pre-phi20
  %56 = load i32, ptr %55, align 4, !tbaa !15
  %57 = and i32 %56, %54
  store i32 %57, ptr %55, align 4, !tbaa !15
  ret i1 %.013
}